target datalayout = "e-m:e-p270:32:32-p271:32:32-p272:64:64-i64:64-i128:128-f80:128-n8:16:32:64-S128"
target triple = "x86_64-pc-linux-gnu"

%"class.llvm::ImutAVLTree" = type { ptr, ptr, ptr, ptr, ptr, i32, %"struct.std::pair.135", i32, i32 }
%"struct.std::pair.135" = type { ptr, %"struct.(anonymous namespace)::MacOSKeychainAPIChecker::AllocationState" }
%"struct.(anonymous namespace)::MacOSKeychainAPIChecker::AllocationState" = type { i32, ptr }

; Function Attrs: mustprogress nounwind uwtable
define linkonce_odr hidden noundef zeroext i1 @_ZN4llvm17ImutContainerInfoIPKN5clang4ento7SymExprEE6isLessES5_S5_(ptr noundef %0, ptr noundef %1) #0 comdat align 2 {
  %3 = alloca ptr, align 8
  %4 = alloca ptr, align 8
  store ptr %0, ptr %3, align 8
  store ptr %1, ptr %4, align 8
  %5 = load ptr, ptr %3, align 8
  %6 = load ptr, ptr %4, align 8
  %7 = icmp ult ptr %5, %6
  ret i1 %7
}

; Function Attrs: mustprogress nounwind uwtable
define internal noundef ptr @_ZNK4llvm11ImutAVLTreeINS_16ImutKeyValueInfoIPKN5clang4ento7SymExprEN12_GLOBAL__N_123MacOSKeychainAPIChecker15AllocationStateEEEE8getRightEv(ptr noundef nonnull align 8 dereferenceable(80) %0) #0 align 2 {
  %2 = alloca ptr, align 8
  store ptr %0, ptr %2, align 8
  %3 = load ptr, ptr %2, align 8
  %4 = getelementptr inbounds nuw %"class.llvm::ImutAVLTree", ptr %3, i32 0, i32 2
  %5 = load ptr, ptr %4, align 8
  ret ptr %5
}

; Function Attrs: mustprogress nounwind uwtable
define internal noundef ptr @_ZNK4llvm11ImutAVLTreeINS_16ImutKeyValueInfoIPKN5clang4ento7SymExprEN12_GLOBAL__N_123MacOSKeychainAPIChecker15AllocationStateEEEE7getLeftEv(ptr noundef nonnull align 8 dereferenceable(80) %0) #0 align 2 {
  %2 = alloca ptr, align 8
  store ptr %0, ptr %2, align 8
  %3 = load ptr, ptr %2, align 8
  %4 = getelementptr inbounds nuw %"class.llvm::ImutAVLTree", ptr %3, i32 0, i32 1
  %5 = load ptr, ptr %4, align 8
  ret ptr %5
}

; Function Attrs: mustprogress nounwind uwtable
define linkonce_odr hidden noundef zeroext i1 @_ZN4llvm17ImutContainerInfoIPKN5clang4ento7SymExprEE7isEqualES5_S5_(ptr noundef %0, ptr noundef %1) #0 comdat align 2 {
  %3 = alloca ptr, align 8
  %4 = alloca ptr, align 8
  store ptr %0, ptr %3, align 8
  store ptr %1, ptr %4, align 8
  %5 = load ptr, ptr %3, align 8
  %6 = load ptr, ptr %4, align 8
  %7 = icmp eq ptr %5, %6
  ret i1 %7
}

; Function Attrs: mustprogress nounwind uwtable
define internal noundef zeroext i1 @_ZN4llvm16ImutKeyValueInfoIPKN5clang4ento7SymExprEN12_GLOBAL__N_123MacOSKeychainAPIChecker15AllocationStateEE6isLessERKS5_SB_(ptr noundef nonnull align 8 dereferenceable(8) %0, ptr noundef nonnull align 8 dereferenceable(8) %1) #0 align 2 {
  %3 = alloca ptr, align 8
  %4 = alloca ptr, align 8
  store ptr %0, ptr %3, align 8
  store ptr %1, ptr %4, align 8
  %5 = load ptr, ptr %3, align 8
  %6 = load ptr, ptr %5, align 8
  %7 = load ptr, ptr %4, align 8
  %8 = load ptr, ptr %7, align 8
  %9 = call noundef zeroext i1 @_ZN4llvm17ImutContainerInfoIPKN5clang4ento7SymExprEE6isLessES5_S5_(ptr noundef %6, ptr noundef %8)
  ret i1 %9
}

; Function Attrs: mustprogress nounwind uwtable
define internal noundef ptr @_ZNK4llvm14ImutAVLFactoryINS_16ImutKeyValueInfoIPKN5clang4ento7SymExprEN12_GLOBAL__N_123MacOSKeychainAPIChecker15AllocationStateEEEE8getRightEPNS_11ImutAVLTreeISA_EE(ptr noundef nonnull align 8 dereferenceable(80) %0, ptr noundef %1) #0 align 2 {
  %3 = alloca ptr, align 8
  %4 = alloca ptr, align 8
  store ptr %0, ptr %3, align 8
  store ptr %1, ptr %4, align 8
  %5 = load ptr, ptr %4, align 8
  %6 = call noundef ptr @_ZNK4llvm11ImutAVLTreeINS_16ImutKeyValueInfoIPKN5clang4ento7SymExprEN12_GLOBAL__N_123MacOSKeychainAPIChecker15AllocationStateEEEE8getRightEv(ptr noundef nonnull align 8 dereferenceable(80) %5)
  ret ptr %6
}

; Function Attrs: mustprogress nounwind uwtable
define internal noundef ptr @_ZNK4llvm14ImutAVLFactoryINS_16ImutKeyValueInfoIPKN5clang4ento7SymExprEN12_GLOBAL__N_123MacOSKeychainAPIChecker15AllocationStateEEEE7getLeftEPNS_11ImutAVLTreeISA_EE(ptr noundef nonnull align 8 dereferenceable(80) %0, ptr noundef %1) #0 align 2 {
  %3 = alloca ptr, align 8
  %4 = alloca ptr, align 8
  store ptr %0, ptr %3, align 8
  store ptr %1, ptr %4, align 8
  %5 = load ptr, ptr %4, align 8
  %6 = call noundef ptr @_ZNK4llvm11ImutAVLTreeINS_16ImutKeyValueInfoIPKN5clang4ento7SymExprEN12_GLOBAL__N_123MacOSKeychainAPIChecker15AllocationStateEEEE7getLeftEv(ptr noundef nonnull align 8 dereferenceable(80) %5)
  ret ptr %6
}

; Function Attrs: mustprogress nounwind uwtable
define internal noundef zeroext i1 @_ZN4llvm16ImutKeyValueInfoIPKN5clang4ento7SymExprEN12_GLOBAL__N_123MacOSKeychainAPIChecker15AllocationStateEE7isEqualERKS5_SB_(ptr noundef nonnull align 8 dereferenceable(8) %0, ptr noundef nonnull align 8 dereferenceable(8) %1) #0 align 2 {
  %3 = alloca ptr, align 8
  %4 = alloca ptr, align 8
  store ptr %0, ptr %3, align 8
  store ptr %1, ptr %4, align 8
  %5 = load ptr, ptr %3, align 8
  %6 = load ptr, ptr %5, align 8
  %7 = load ptr, ptr %4, align 8
  %8 = load ptr, ptr %7, align 8
  %9 = call noundef zeroext i1 @_ZN4llvm17ImutContainerInfoIPKN5clang4ento7SymExprEE7isEqualES5_S5_(ptr noundef %6, ptr noundef %8)
  ret i1 %9
}

; Function Attrs: mustprogress nounwind uwtable
define internal noundef nonnull align 8 dereferenceable(24) ptr @_ZNK4llvm14ImutAVLFactoryINS_16ImutKeyValueInfoIPKN5clang4ento7SymExprEN12_GLOBAL__N_123MacOSKeychainAPIChecker15AllocationStateEEEE8getValueEPNS_11ImutAVLTreeISA_EE(ptr noundef nonnull align 8 dereferenceable(80) %0, ptr noundef %1) #0 align 2 {
  %3 = alloca ptr, align 8
  %4 = alloca ptr, align 8
  store ptr %0, ptr %3, align 8
  store ptr %1, ptr %4, align 8
  %5 = load ptr, ptr %4, align 8
  %6 = getelementptr inbounds nuw %"class.llvm::ImutAVLTree", ptr %5, i32 0, i32 6
  ret ptr %6
}

; Function Attrs: mustprogress nounwind uwtable
define internal noundef nonnull align 8 dereferenceable(8) ptr @_ZN4llvm16ImutKeyValueInfoIPKN5clang4ento7SymExprEN12_GLOBAL__N_123MacOSKeychainAPIChecker15AllocationStateEE10KeyOfValueERKSt4pairIS5_S8_E(ptr noundef nonnull align 8 dereferenceable(24) %0) #0 align 2 {
  %2 = alloca ptr, align 8
  store ptr %0, ptr %2, align 8
  %3 = load ptr, ptr %2, align 8
  %4 = getelementptr inbounds nuw %"struct.std::pair.135", ptr %3, i32 0, i32 0
  ret ptr %4
}

; Function Attrs: mustprogress nounwind uwtable
define internal noundef zeroext i1 @_ZNK4llvm14ImutAVLFactoryINS_16ImutKeyValueInfoIPKN5clang4ento7SymExprEN12_GLOBAL__N_123MacOSKeychainAPIChecker15AllocationStateEEEE7isEmptyEPNS_11ImutAVLTreeISA_EE(ptr noundef nonnull align 8 dereferenceable(80) %0, ptr noundef %1) #0 align 2 {
  %3 = alloca ptr, align 8
  %4 = alloca ptr, align 8
  store ptr %0, ptr %3, align 8
  store ptr %1, ptr %4, align 8
  %5 = load ptr, ptr %4, align 8
  %6 = icmp ne ptr %5, null
  %7 = xor i1 %6, true
  ret i1 %7
}

; Function Attrs: mustprogress nounwind uwtable
define internal noundef ptr @_ZN4llvm14ImutAVLFactoryINS_16ImutKeyValueInfoIPKN5clang4ento7SymExprEN12_GLOBAL__N_123MacOSKeychainAPIChecker15AllocationStateEEEE12add_internalERKSt4pairIS6_S9_EPNS_11ImutAVLTreeISA_EE(ptr noundef nonnull align 8 dereferenceable(80) %0, ptr noundef nonnull align 8 dereferenceable(24) %1, ptr noundef %2) #0 align 2 {
  %4 = alloca ptr, align 8
  %5 = alloca ptr, align 8
  %6 = alloca ptr, align 8
  %7 = alloca ptr, align 8
  %8 = alloca ptr, align 8
  %9 = alloca ptr, align 8
  store ptr %0, ptr %5, align 8
  store ptr %1, ptr %6, align 8
  store ptr %2, ptr %7, align 8
  %10 = load ptr, ptr %5, align 8
  %11 = load ptr, ptr %7, align 8
  %12 = call noundef zeroext i1 @_ZNK4llvm14ImutAVLFactoryINS_16ImutKeyValueInfoIPKN5clang4ento7SymExprEN12_GLOBAL__N_123MacOSKeychainAPIChecker15AllocationStateEEEE7isEmptyEPNS_11ImutAVLTreeISA_EE(ptr noundef nonnull align 8 dereferenceable(80) %10, ptr noundef %11)
  br i1 %12, label %13, label %18

13:                                               ; preds = %3
  %14 = load ptr, ptr %7, align 8
  %15 = load ptr, ptr %6, align 8
  %16 = load ptr, ptr %7, align 8
  %17 = call noundef ptr @_ZN4llvm14ImutAVLFactoryINS_16ImutKeyValueInfoIPKN5clang4ento7SymExprEN12_GLOBAL__N_123MacOSKeychainAPIChecker15AllocationStateEEEE10createNodeEPNS_11ImutAVLTreeISA_EERKSt4pairIS6_S9_ESE_(ptr noundef nonnull align 8 dereferenceable(80) %10, ptr noundef %14, ptr noundef nonnull align 8 dereferenceable(24) %15, ptr noundef %16)
  store ptr %17, ptr %4, align 8
  br label %58

18:                                               ; preds = %3
  %19 = load ptr, ptr %6, align 8
  %20 = call noundef nonnull align 8 dereferenceable(8) ptr @_ZN4llvm16ImutKeyValueInfoIPKN5clang4ento7SymExprEN12_GLOBAL__N_123MacOSKeychainAPIChecker15AllocationStateEE10KeyOfValueERKSt4pairIS5_S8_E(ptr noundef nonnull align 8 dereferenceable(24) %19)
  store ptr %20, ptr %8, align 8
  %21 = load ptr, ptr %7, align 8
  %22 = call noundef nonnull align 8 dereferenceable(24) ptr @_ZNK4llvm14ImutAVLFactoryINS_16ImutKeyValueInfoIPKN5clang4ento7SymExprEN12_GLOBAL__N_123MacOSKeychainAPIChecker15AllocationStateEEEE8getValueEPNS_11ImutAVLTreeISA_EE(ptr noundef nonnull align 8 dereferenceable(80) %10, ptr noundef %21)
  %23 = call noundef nonnull align 8 dereferenceable(8) ptr @_ZN4llvm16ImutKeyValueInfoIPKN5clang4ento7SymExprEN12_GLOBAL__N_123MacOSKeychainAPIChecker15AllocationStateEE10KeyOfValueERKSt4pairIS5_S8_E(ptr noundef nonnull align 8 dereferenceable(24) %22)
  store ptr %23, ptr %9, align 8
  %24 = load ptr, ptr %8, align 8
  %25 = load ptr, ptr %9, align 8
  %26 = call noundef zeroext i1 @_ZN4llvm16ImutKeyValueInfoIPKN5clang4ento7SymExprEN12_GLOBAL__N_123MacOSKeychainAPIChecker15AllocationStateEE7isEqualERKS5_SB_(ptr noundef nonnull align 8 dereferenceable(8) %24, ptr noundef nonnull align 8 dereferenceable(8) %25)
  br i1 %26, label %27, label %34

27:                                               ; preds = %18
  %28 = load ptr, ptr %7, align 8
  %29 = call noundef ptr @_ZNK4llvm14ImutAVLFactoryINS_16ImutKeyValueInfoIPKN5clang4ento7SymExprEN12_GLOBAL__N_123MacOSKeychainAPIChecker15AllocationStateEEEE7getLeftEPNS_11ImutAVLTreeISA_EE(ptr noundef nonnull align 8 dereferenceable(80) %10, ptr noundef %28)
  %30 = load ptr, ptr %6, align 8
  %31 = load ptr, ptr %7, align 8
  %32 = call noundef ptr @_ZNK4llvm14ImutAVLFactoryINS_16ImutKeyValueInfoIPKN5clang4ento7SymExprEN12_GLOBAL__N_123MacOSKeychainAPIChecker15AllocationStateEEEE8getRightEPNS_11ImutAVLTreeISA_EE(ptr noundef nonnull align 8 dereferenceable(80) %10, ptr noundef %31)
  %33 = call noundef ptr @_ZN4llvm14ImutAVLFactoryINS_16ImutKeyValueInfoIPKN5clang4ento7SymExprEN12_GLOBAL__N_123MacOSKeychainAPIChecker15AllocationStateEEEE10createNodeEPNS_11ImutAVLTreeISA_EERKSt4pairIS6_S9_ESE_(ptr noundef nonnull align 8 dereferenceable(80) %10, ptr noundef %29, ptr noundef nonnull align 8 dereferenceable(24) %30, ptr noundef %32)
  store ptr %33, ptr %4, align 8
  br label %58

34:                                               ; preds = %18
  %35 = load ptr, ptr %8, align 8
  %36 = load ptr, ptr %9, align 8
  %37 = call noundef zeroext i1 @_ZN4llvm16ImutKeyValueInfoIPKN5clang4ento7SymExprEN12_GLOBAL__N_123MacOSKeychainAPIChecker15AllocationStateEE6isLessERKS5_SB_(ptr noundef nonnull align 8 dereferenceable(8) %35, ptr noundef nonnull align 8 dereferenceable(8) %36)
  br i1 %37, label %38, label %48

38:                                               ; preds = %34
  %39 = load ptr, ptr %6, align 8
  %40 = load ptr, ptr %7, align 8
  %41 = call noundef ptr @_ZNK4llvm14ImutAVLFactoryINS_16ImutKeyValueInfoIPKN5clang4ento7SymExprEN12_GLOBAL__N_123MacOSKeychainAPIChecker15AllocationStateEEEE7getLeftEPNS_11ImutAVLTreeISA_EE(ptr noundef nonnull align 8 dereferenceable(80) %10, ptr noundef %40)
  %42 = call noundef ptr @_ZN4llvm14ImutAVLFactoryINS_16ImutKeyValueInfoIPKN5clang4ento7SymExprEN12_GLOBAL__N_123MacOSKeychainAPIChecker15AllocationStateEEEE12add_internalERKSt4pairIS6_S9_EPNS_11ImutAVLTreeISA_EE(ptr noundef nonnull align 8 dereferenceable(80) %10, ptr noundef nonnull align 8 dereferenceable(24) %39, ptr noundef %41)
  %43 = load ptr, ptr %7, align 8
  %44 = call noundef nonnull align 8 dereferenceable(24) ptr @_ZNK4llvm14ImutAVLFactoryINS_16ImutKeyValueInfoIPKN5clang4ento7SymExprEN12_GLOBAL__N_123MacOSKeychainAPIChecker15AllocationStateEEEE8getValueEPNS_11ImutAVLTreeISA_EE(ptr noundef nonnull align 8 dereferenceable(80) %10, ptr noundef %43)
  %45 = load ptr, ptr %7, align 8
  %46 = call noundef ptr @_ZNK4llvm14ImutAVLFactoryINS_16ImutKeyValueInfoIPKN5clang4ento7SymExprEN12_GLOBAL__N_123MacOSKeychainAPIChecker15AllocationStateEEEE8getRightEPNS_11ImutAVLTreeISA_EE(ptr noundef nonnull align 8 dereferenceable(80) %10, ptr noundef %45)
  %47 = call noundef ptr @_ZN4llvm14ImutAVLFactoryINS_16ImutKeyValueInfoIPKN5clang4ento7SymExprEN12_GLOBAL__N_123MacOSKeychainAPIChecker15AllocationStateEEEE11balanceTreeEPNS_11ImutAVLTreeISA_EERKSt4pairIS6_S9_ESE_(ptr noundef nonnull align 8 dereferenceable(80) %10, ptr noundef %42, ptr noundef nonnull align 8 dereferenceable(24) %44, ptr noundef %46)
  store ptr %47, ptr %4, align 8
  br label %58

48:                                               ; preds = %34
  %49 = load ptr, ptr %7, align 8
  %50 = call noundef ptr @_ZNK4llvm14ImutAVLFactoryINS_16ImutKeyValueInfoIPKN5clang4ento7SymExprEN12_GLOBAL__N_123MacOSKeychainAPIChecker15AllocationStateEEEE7getLeftEPNS_11ImutAVLTreeISA_EE(ptr noundef nonnull align 8 dereferenceable(80) %10, ptr noundef %49)
  %51 = load ptr, ptr %7, align 8
  %52 = call noundef nonnull align 8 dereferenceable(24) ptr @_ZNK4llvm14ImutAVLFactoryINS_16ImutKeyValueInfoIPKN5clang4ento7SymExprEN12_GLOBAL__N_123MacOSKeychainAPIChecker15AllocationStateEEEE8getValueEPNS_11ImutAVLTreeISA_EE(ptr noundef nonnull align 8 dereferenceable(80) %10, ptr noundef %51)
  %53 = load ptr, ptr %6, align 8
  %54 = load ptr, ptr %7, align 8
  %55 = call noundef ptr @_ZNK4llvm14ImutAVLFactoryINS_16ImutKeyValueInfoIPKN5clang4ento7SymExprEN12_GLOBAL__N_123MacOSKeychainAPIChecker15AllocationStateEEEE8getRightEPNS_11ImutAVLTreeISA_EE(ptr noundef nonnull align 8 dereferenceable(80) %10, ptr noundef %54)
  %56 = call noundef ptr @_ZN4llvm14ImutAVLFactoryINS_16ImutKeyValueInfoIPKN5clang4ento7SymExprEN12_GLOBAL__N_123MacOSKeychainAPIChecker15AllocationStateEEEE12add_internalERKSt4pairIS6_S9_EPNS_11ImutAVLTreeISA_EE(ptr noundef nonnull align 8 dereferenceable(80) %10, ptr noundef nonnull align 8 dereferenceable(24) %53, ptr noundef %55)
  %57 = call noundef ptr @_ZN4llvm14ImutAVLFactoryINS_16ImutKeyValueInfoIPKN5clang4ento7SymExprEN12_GLOBAL__N_123MacOSKeychainAPIChecker15AllocationStateEEEE11balanceTreeEPNS_11ImutAVLTreeISA_EERKSt4pairIS6_S9_ESE_(ptr noundef nonnull align 8 dereferenceable(80) %10, ptr noundef %50, ptr noundef nonnull align 8 dereferenceable(24) %52, ptr noundef %56)
  store ptr %57, ptr %4, align 8
  br label %58

58:                                               ; preds = %48, %38, %27, %13
  %59 = load ptr, ptr %4, align 8
  ret ptr %59
}